(dp1
S'layout'
p2
(ilayout
Layout
p3
(dp4
S'capsules'
p5
(lp6
(I18
I1
tp7
a(I1
I9
tp8
asS'numGhosts'
p9
I2
sS'food'
p10
(igame
Grid
p11
(dp12
S'CELLS_PER_INT'
p13
I30
sS'width'
p14
I20
sS'data'
p15
(lp16
(lp17
I00
aI00
aI00
aI00
aI00
aI00
aI00
aI00
aI00
aI00
aI00
aa(lp18
I00
aI01
aI01
aI01
aI01
aI01
aI01
aI01
aI01
aI00
aI00
aa(lp19
I00
aI01
aI00
aI00
aI00
aI01
aI00
aI00
aI00
aI01
aI00
aa(lp20
I00
aI01
aI00
aI01
aI01
aI01
aI01
aI01
aI00
aI01
aI00
aa(lp21
I00
aI01
aI01
aI01
aI00
aI01
aI00
aI01
aI01
aI01
aI00
aa(lp22
I00
aI00
aI00
aI01
aI00
aI01
aI00
aI01
aI00
aI00
aI00
aa(lp23
I00
aI01
aI01
aI01
aI01
aI01
aI01
aI01
aI01
aI01
aI00
aa(lp24
I00
aI01
aI00
aI01
aI00
aI00
aI00
aI01
aI00
aI01
aI00
aa(lp25
I00
aI01
aI00
aI01
aI00
aI00
aI00
aI01
aI00
aI01
aI00
aa(lp26
I00
aI00
aI00
aI01
aI00
aI00
aI00
aI01
aI00
aI01
aI00
aa(lp27
I00
aI01
aI00
aI01
aI00
aI00
aI00
aI01
aI00
aI01
aI00
aa(lp28
I00
aI01
aI00
aI01
aI00
aI00
aI00
aI01
aI00
aI01
aI00
aa(lp29
I00
aI01
aI00
aI01
aI00
aI00
aI00
aI01
aI00
aI01
aI00
aa(lp30
I00
aI01
aI01
aI01
aI01
aI01
aI01
aI01
aI01
aI01
aI00
aa(lp31
I00
aI00
aI00
aI01
aI00
aI01
aI00
aI01
aI00
aI00
aI00
aa(lp32
I00
aI01
aI01
aI01
aI00
aI01
aI00
aI01
aI01
aI01
aI00
aa(lp33
I00
aI01
aI00
aI01
aI01
aI01
aI01
aI01
aI00
aI01
aI00
aa(lp34
I00
aI01
aI00
aI00
aI00
aI01
aI00
aI00
aI00
aI01
aI00
aa(lp35
I00
aI00
aI01
aI01
aI01
aI01
aI01
aI01
aI01
aI01
aI00
aa(lp36
I00
aI00
aI00
aI00
aI00
aI00
aI00
aI00
aI00
aI00
aI00
aasS'height'
p37
I11
sbsS'agentPositions'
p38
(lp39
(I01
(I9
I1
tp40
tp41
a(I00
(I8
I5
tp42
tp43
a(I00
(I11
I5
tp44
tp45
asg37
I11
sg14
I20
sS'walls'
p46
(igame
Grid
p47
(dp48
g13
I30
sg14
I20
sg15
(lp49
(lp50
I01
aI01
aI01
aI01
aI01
aI01
aI01
aI01
aI01
aI01
aI01
aa(lp51
I01
aI00
aI00
aI00
aI00
aI00
aI00
aI00
aI00
aI00
aI01
aa(lp52
I01
aI00
aI01
aI01
aI01
aI00
aI01
aI01
aI01
aI00
aI01
aa(lp53
I01
aI00
aI01
aI00
aI00
aI00
aI00
aI00
aI01
aI00
aI01
aa(lp54
I01
aI00
aI00
aI00
aI01
aI00
aI01
aI00
aI00
aI00
aI01
aa(lp55
I01
aI01
aI01
aI00
aI01
aI00
aI01
aI00
aI01
aI01
aI01
aa(lp56
I01
aI00
aI00
aI00
aI00
aI00
aI00
aI00
aI00
aI00
aI01
aa(lp57
I01
aI00
aI01
aI00
aI01
aI01
aI01
aI00
aI01
aI00
aI01
aa(lp58
I01
aI00
aI01
aI00
aI01
aI00
aI01
aI00
aI01
aI00
aI01
aa(lp59
I01
aI00
aI01
aI00
aI01
aI00
aI00
aI00
aI01
aI00
aI01
aa(lp60
I01
aI00
aI01
aI00
aI01
aI00
aI00
aI00
aI01
aI00
aI01
aa(lp61
I01
aI00
aI01
aI00
aI01
aI00
aI01
aI00
aI01
aI00
aI01
aa(lp62
I01
aI00
aI01
aI00
aI01
aI01
aI01
aI00
aI01
aI00
aI01
aa(lp63
I01
aI00
aI00
aI00
aI00
aI00
aI00
aI00
aI00
aI00
aI01
aa(lp64
I01
aI01
aI01
aI00
aI01
aI00
aI01
aI00
aI01
aI01
aI01
aa(lp65
I01
aI00
aI00
aI00
aI01
aI00
aI01
aI00
aI00
aI00
aI01
aa(lp66
I01
aI00
aI01
aI00
aI00
aI00
aI00
aI00
aI01
aI00
aI01
aa(lp67
I01
aI00
aI01
aI01
aI01
aI00
aI01
aI01
aI01
aI00
aI01
aa(lp68
I01
aI00
aI00
aI00
aI00
aI00
aI00
aI00
aI00
aI00
aI01
aa(lp69
I01
aI01
aI01
aI01
aI01
aI01
aI01
aI01
aI01
aI01
aI01
aasg37
I11
sbsS'totalFood'
p70
I97
sS'layoutText'
p71
(lp72
S'%%%%%%%%%%%%%%%%%%%%'
p73
aS'%o...%........%....%'
p74
aS'%.%%.%.%%%%%%.%.%%.%'
p75
aS'%.%..............%.%'
p76
aS'%.%.%%.%%  %%.%%.%.%'
p77
aS'%......%G  G%......%'
p78
aS'%.%.%%.%%%%%%.%%.%.%'
p79
aS'%.%..............%.%'
p80
aS'%.%%.%.%%%%%%.%.%%.%'
p81
aS'%....%...P....%...o%'
p82
aS'%%%%%%%%%%%%%%%%%%%%'
p83
asbsS'actions'
p84
(lp85
(I0
S'East'
p86
tp87
a(I1
g86
tp88
a(I2
S'West'
p89
tp90
a(I0
g86
tp91
a(I1
g86
tp92
a(I2
S'North'
p93
tp94
a(I0
g86
tp95
a(I1
g93
tp96
a(I2
g89
tp97
a(I0
S'Stop'
p98
tp99
a(I1
g93
tp100
a(I2
S'South'
p101
tp102
a(I0
g86
tp103
a(I1
g86
tp104
a(I2
g86
tp105
a(I0
g93
tp106
a(I1
g86
tp107
a(I2
g86
tp108
a(I0
g98
tp109
a(I1
g86
tp110
a(I2
g89
tp111
a(I0
g93
tp112
a(I1
g86
tp113
a(I2
g93
tp114
a(I0
g98
tp115
a(I1
g86
tp116
a(I2
g89
tp117
a(I0
g101
tp118
a(I1
g86
tp119
a(I2
g101
tp120
a(I0
g93
tp121
a(I1
g101
tp122
a(I2
g86
tp123
a(I0
g98
tp124
a(I1
g101
tp125
a(I2
g93
tp126
a(I0
g98
tp127
a(I1
g86
tp128
a(I2
g93
tp129
a(I0
g89
tp130
a(I1
g86
tp131
a(I2
g86
tp132
a(I0
g89
tp133
a(I1
g101
tp134
a(I2
g86
tp135
a(I0
g89
tp136
a(I1
g101
tp137
a(I2
g86
tp138
a(I0
g89
tp139
a(I1
g101
tp140
a(I2
g101
tp141
a(I0
g86
tp142
a(I1
g101
tp143
a(I2
g101
tp144
a(I0
g89
tp145
a(I1
g89
tp146
a(I2
g86
tp147
a(I0
g86
tp148
a(I1
g89
tp149
a(I2
g86
tp150
a(I0
g89
tp151
a(I1
g89
tp152
a(I2
g86
tp153
a(I0
g98
tp154
a(I1
g93
tp155
a(I2
g93
tp156
a(I0
g86
tp157
a(I1
g93
tp158
a(I2
g93
tp159
a(I0
g89
tp160
a(I1
g89
tp161
a(I2
g89
tp162
a(I0
g86
tp163
a(I1
g89
tp164
a(I2
g93
tp165
a(I0
g89
tp166
a(I1
g101
tp167
a(I2
g93
tp168
a(I0
g86
tp169
a(I1
g101
tp170
a(I2
g86
tp171
a(I0
g86
tp172
a(I1
g89
tp173
a(I2
g86
tp174
a(I0
g86
tp175
a(I1
g89
tp176
a(I2
g86
tp177
a(I0
g98
tp178
a(I1
g89
tp179
a(I2
g101
tp180
a(I0
g98
tp181
a(I1
g89
tp182
a(I2
g101
tp183
a(I0
g98
tp184
a(I1
g89
tp185
a(I2
g101
tp186
a(I0
g86
tp187
a(I1
g89
tp188
a(I2
g101
tp189
a(I0
g86
tp190
a(I1
g89
tp191
a(I2
g89
tp192
a(I0
g98
tp193
a(I1
g93
tp194
a(I2
g89
tp195
a(I0
g89
tp196
a(I1
g93
tp197
a(I2
g101
tp198
a(I0
g89
tp199
a(I1
g93
tp200
a(I2
g101
tp201
a(I0
g86
tp202
a(I1
g93
tp203
a(I2
g89
tp204
a(I0
g98
tp205
a(I1
g93
tp206
a(I2
g101
tp207
a(I0
g86
tp208
a(I1
g93
tp209
a(I2
g101
tp210
a(I0
g89
tp211
a(I1
g86
tp212
a(I2
g86
tp213
a(I0
g86
tp214
a(I1
g86
tp215
a(I2
g86
tp216
a(I0
g89
tp217
a(I1
g86
tp218
a(I2
g86
tp219
a(I0
g98
tp220
a(I1
g86
tp221
a(I2
g93
tp222
a(I0
g93
tp223
a(I1
g86
tp224
a(I2
g93
tp225
a(I0
g101
tp226
a(I1
g86
tp227
a(I2
g93
tp228
a(I0
g101
tp229
a(I1
g86
tp230
a(I2
g93
tp231
a(I0
g93
tp232
a(I1
g86
tp233
a(I2
g89
tp234
a(I0
g89
tp235
a(I1
g86
tp236
a(I2
g89
tp237
a(I0
g86
tp238
a(I1
g86
tp239
a(I2
g101
tp240
a(I0
g89
tp241
a(I1
g101
tp242
a(I2
g101
tp243
a(I0
g98
tp244
a(I1
g101
tp245
a(I2
g89
tp246
a(I0
g86
tp247
a(I1
g101
tp248
a(I2
g89
tp249
a(I0
g86
tp250
as.